target datalayout = "e-m:e-p270:32:32-p271:32:32-p272:64:64-i64:64-i128:128-f80:128-n8:16:32:64-S128"
target triple = "x86_64-pc-linux-gnu"

%struct.slurm_select_ops_t = type { ptr, ptr, ptr, ptr, ptr, ptr, ptr, ptr, ptr, ptr, ptr, ptr, ptr, ptr, ptr, ptr, ptr, ptr, ptr, ptr, ptr, ptr, ptr, ptr, ptr, ptr, ptr, ptr, ptr, ptr, ptr, ptr }

@ops = internal global ptr null, align 8
@select_context_default = internal global i32 -1, align 4

; Function Attrs: nounwind uwtable
define dso_local i32 @select_g_job_resume(ptr noundef %0, i1 noundef zeroext %1) #0 {
  %3 = alloca ptr, align 8
  %4 = alloca i8, align 1
  store ptr %0, ptr %3, align 8
  %5 = zext i1 %1 to i8
  store i8 %5, ptr %4, align 1
  %6 = load ptr, ptr @ops, align 8
  %7 = load i32, ptr @select_context_default, align 4
  %8 = sext i32 %7 to i64
  %9 = getelementptr inbounds %struct.slurm_select_ops_t, ptr %6, i64 %8
  %10 = getelementptr inbounds nuw %struct.slurm_select_ops_t, ptr %9, i32 0, i32 12
  %11 = load ptr, ptr %10, align 8
  %12 = load ptr, ptr %3, align 8
  %13 = load i8, ptr %4, align 1, !range !12, !noundef !13
  %14 = trunc i8 %13 to i1
  %15 = call i32 %11(ptr noundef %12, i1 noundef zeroext %14)
  ret i32 %15
}